; Function Attrs: mustprogress uwtable
define void @_ZN3nix16RemoteFSAccessor8readLinkB5cxx11ERKNS_9CanonPathE(ptr dead_on_unwind noalias writable sret(%"class.std::__cxx11::basic_string") align 8 %0, ptr noundef nonnull align 8 dereferenceable(184) %1, ptr nocapture noundef nonnull readonly align 8 dereferenceable(32) %2) unnamed_addr #4 align 2 personality ptr @__gxx_personality_v0 {
  %4 = alloca %"struct.std::pair.10", align 8
  call void @_ZN3nix16RemoteFSAccessor5fetchERKNS_9CanonPathE(ptr dead_on_unwind nonnull writable sret(%"struct.std::pair.10") align 8 %4, ptr noundef nonnull align 8 dereferenceable(184) %1, ptr noundef nonnull align 8 dereferenceable(32) %2)
  %5 = load ptr, ptr %4, align 8
  %6 = getelementptr inbounds i8, ptr %4, i64 16
  %7 = load ptr, ptr %5, align 8
  %8 = getelementptr inbounds i8, ptr %7, i64 56
  %9 = load ptr, ptr %8, align 8
  invoke void %9(ptr dead_on_unwind writable sret(%"class.std::__cxx11::basic_string") align 8 %0, ptr noundef nonnull align 8 dereferenceable(80) %5, ptr noundef nonnull align 8 dereferenceable(32) %6)
          to label %10 unwind label %53

10:                                               ; preds = %3
  %11 = load ptr, ptr %6, align 8
  %12 = getelementptr inbounds i8, ptr %4, i64 32
  %13 = icmp eq ptr %11, %12
  br i1 %13, label %_ZNKSt7__cxx1112basic_stringIcSt11char_traitsIcESaIcEE11_M_is_localEv.exit.thread.i.i.i.i, label %_ZNKSt7__cxx1112basic_stringIcSt11char_traitsIcESaIcEE11_M_is_localEv.exit.i.i.i.i

_ZNKSt7__cxx1112basic_stringIcSt11char_traitsIcESaIcEE11_M_is_localEv.exit.thread.i.i.i.i: ; preds = %10
  %14 = getelementptr inbounds i8, ptr %4, i64 24
  %15 = load i64, ptr %14, align 8
  %16 = icmp ult i64 %15, 16
  call void @llvm.assume(i1 %16)
  br label %_ZN3nix9CanonPathD2Ev.exit.i

_ZNKSt7__cxx1112basic_stringIcSt11char_traitsIcESaIcEE11_M_is_localEv.exit.i.i.i.i: ; preds = %10
  call void @_ZdlPv(ptr noundef %11) #27
  br label %_ZN3nix9CanonPathD2Ev.exit.i

_ZN3nix9CanonPathD2Ev.exit.i:                     ; preds = %_ZNKSt7__cxx1112basic_stringIcSt11char_traitsIcESaIcEE11_M_is_localEv.exit.i.i.i.i, %_ZNKSt7__cxx1112basic_stringIcSt11char_traitsIcESaIcEE11_M_is_localEv.exit.thread.i.i.i.i
  call void @_ZNSaIcED2Ev(ptr noundef nonnull align 1 dereferenceable(1) %6) #26
  %17 = getelementptr inbounds i8, ptr %4, i64 8
  %18 = load ptr, ptr %17, align 8
  %.not.i.i.i.i.i = icmp eq ptr %18, null
  br i1 %.not.i.i.i.i.i, label %_ZNSt4pairIN3nix3refINS0_14SourceAccessorEEENS0_9CanonPathEED2Ev.exit, label %19

19:                                               ; preds = %_ZN3nix9CanonPathD2Ev.exit.i
  %20 = getelementptr inbounds i8, ptr %18, i64 8
  %21 = load atomic i64, ptr %20 acquire, align 8
  %22 = icmp eq i64 %21, 4294967297
  %23 = trunc i64 %21 to i32
  br i1 %22, label %24, label %29

24:                                               ; preds = %19
  store i32 0, ptr %20, align 8
  %25 = getelementptr inbounds i8, ptr %18, i64 12
  store i32 0, ptr %25, align 4
  %26 = load ptr, ptr %18, align 8
  %27 = getelementptr inbounds i8, ptr %26, i64 16
  %28 = load ptr, ptr %27, align 8
  call void %28(ptr noundef nonnull align 8 dereferenceable(16) %18) #26
  br label %_ZNSt16_Sp_counted_baseILN9__gnu_cxx12_Lock_policyE2EE24_M_release_last_use_coldEv.exit.sink.split.i.i.i.i.i.i

29:                                               ; preds = %19
  %30 = load i8, ptr @__libc_single_threaded, align 1
  %.not.i.i.i.i.i.i = icmp eq i8 %30, 0
  br i1 %.not.i.i.i.i.i.i, label %33, label %31

31:                                               ; preds = %29
  %32 = add nsw i32 %23, -1
  store i32 %32, ptr %20, align 4
  br label %35

33:                                               ; preds = %29
  %34 = atomicrmw volatile add ptr %20, i32 -1 acq_rel, align 4
  br label %35

35:                                               ; preds = %33, %31
  %.0.i.i.i.i.i.i = phi i32 [ %23, %31 ], [ %34, %33 ]
  %36 = icmp eq i32 %.0.i.i.i.i.i.i, 1
  br i1 %36, label %37, label %_ZNSt4pairIN3nix3refINS0_14SourceAccessorEEENS0_9CanonPathEED2Ev.exit

37:                                               ; preds = %35
  %38 = load ptr, ptr %18, align 8
  %39 = getelementptr inbounds i8, ptr %38, i64 16
  %40 = load ptr, ptr %39, align 8
  call void %40(ptr noundef nonnull align 8 dereferenceable(16) %18) #26
  %41 = getelementptr inbounds i8, ptr %18, i64 12
  %42 = load i8, ptr @__libc_single_threaded, align 1
  %.not.i.i.i.i.i.i.i.i = icmp eq i8 %42, 0
  br i1 %.not.i.i.i.i.i.i.i.i, label %46, label %43

43:                                               ; preds = %37
  %44 = load i32, ptr %41, align 4
  %45 = add nsw i32 %44, -1
  store i32 %45, ptr %41, align 4
  br label %48

46:                                               ; preds = %37
  %47 = atomicrmw volatile add ptr %41, i32 -1 acq_rel, align 4
  br label %48

48:                                               ; preds = %46, %43
  %.0.i.i.i.i.i.i.i.i = phi i32 [ %44, %43 ], [ %47, %46 ]
  %49 = icmp eq i32 %.0.i.i.i.i.i.i.i.i, 1
  br i1 %49, label %_ZNSt16_Sp_counted_baseILN9__gnu_cxx12_Lock_policyE2EE24_M_release_last_use_coldEv.exit.sink.split.i.i.i.i.i.i, label %_ZNSt4pairIN3nix3refINS0_14SourceAccessorEEENS0_9CanonPathEED2Ev.exit

_ZNSt16_Sp_counted_baseILN9__gnu_cxx12_Lock_policyE2EE24_M_release_last_use_coldEv.exit.sink.split.i.i.i.i.i.i: ; preds = %48, %24
  %50 = load ptr, ptr %18, align 8
  %51 = getelementptr inbounds i8, ptr %50, i64 24
  %52 = load ptr, ptr %51, align 8
  call void %52(ptr noundef nonnull align 8 dereferenceable(16) %18) #26
  br label %_ZNSt4pairIN3nix3refINS0_14SourceAccessorEEENS0_9CanonPathEED2Ev.exit

_ZNSt4pairIN3nix3refINS0_14SourceAccessorEEENS0_9CanonPathEED2Ev.exit: ; preds = %_ZN3nix9CanonPathD2Ev.exit.i, %35, %48, %_ZNSt16_Sp_counted_baseILN9__gnu_cxx12_Lock_policyE2EE24_M_release_last_use_coldEv.exit.sink.split.i.i.i.i.i.i
  ret void

53:                                               ; preds = %3
  %54 = landingpad { ptr, i32 }
          cleanup
  call void @_ZNSt4pairIN3nix3refINS0_14SourceAccessorEEENS0_9CanonPathEED2Ev(ptr noundef nonnull align 8 dereferenceable(48) %4) #26
  resume { ptr, i32 } %54
}